; ModuleID = '25/1127.cpp'
source_filename = "25/1127.cpp"
target datalayout = "e-m:e-p270:32:32-p271:32:32-p272:64:64-i64:64-f80:128-n8:16:32:64-S128"
target triple = "x86_64-pc-linux-gnu"

%"class.std::ios_base::Init" = type { i8 }
%"class.std::basic_istream" = type { i32 (...)**, i64, %"class.std::basic_ios" }
%"class.std::basic_ios" = type { %"class.std::ios_base", %"class.std::basic_ostream"*, i8, i8, %"class.std::basic_streambuf"*, %"class.std::ctype"*, %"class.std::num_put"*, %"class.std::num_get"* }
%"class.std::ios_base" = type { i32 (...)**, i64, i64, i32, i32, i32, %"struct.std::ios_base::_Callback_list"*, %"struct.std::ios_base::_Words", [8 x %"struct.std::ios_base::_Words"], i32, %"struct.std::ios_base::_Words"*, %"class.std::locale" }
%"struct.std::ios_base::_Callback_list" = type { %"struct.std::ios_base::_Callback_list"*, void (i32, %"class.std::ios_base"*, i32)*, i32, i32 }
%"struct.std::ios_base::_Words" = type { i8*, i64 }
%"class.std::locale" = type { %"class.std::locale::_Impl"* }
%"class.std::locale::_Impl" = type { i32, %"class.std::locale::facet"**, i64, %"class.std::locale::facet"**, i8** }
%"class.std::locale::facet" = type <{ i32 (...)**, i32, [4 x i8] }>
%"class.std::basic_ostream" = type { i32 (...)**, %"class.std::basic_ios" }
%"class.std::basic_streambuf" = type { i32 (...)**, i8*, i8*, i8*, i8*, i8*, i8*, %"class.std::locale" }
%"class.std::ctype" = type <{ %"class.std::locale::facet.base", [4 x i8], %struct.__locale_struct*, i8, [7 x i8], i32*, i32*, i16*, i8, [256 x i8], [256 x i8], i8, [6 x i8] }>
%"class.std::locale::facet.base" = type <{ i32 (...)**, i32 }>
%struct.__locale_struct = type { [13 x %struct.__locale_data*], i16*, i32*, i32*, [13 x i8*] }
%struct.__locale_data = type opaque
%"class.std::num_put" = type { %"class.std::locale::facet.base", [4 x i8] }
%"class.std::num_get" = type { %"class.std::locale::facet.base", [4 x i8] }

@_ZStL8__ioinit = internal global %"class.std::ios_base::Init" zeroinitializer, align 1
@__dso_handle = external hidden global i8
@number = dso_local global [110 x i8] zeroinitializer, align 16
@_ZSt3cin = external dso_local global %"class.std::basic_istream", align 8
@_ZSt4cout = external dso_local global %"class.std::basic_ostream", align 8
@llvm.global_ctors = appending global [1 x { i32, void ()*, i8* }] [{ i32, void ()*, i8* } { i32 65535, void ()* @_GLOBAL__sub_I_1127.cpp, i8* null }]

; Function Attrs: noinline uwtable
define internal void @__cxx_global_var_init() #0 section ".text.startup" {
  call void @_ZNSt8ios_base4InitC1Ev(%"class.std::ios_base::Init"* @_ZStL8__ioinit)
  %1 = call i32 @__cxa_atexit(void (i8*)* bitcast (void (%"class.std::ios_base::Init"*)* @_ZNSt8ios_base4InitD1Ev to void (i8*)*), i8* getelementptr inbounds (%"class.std::ios_base::Init", %"class.std::ios_base::Init"* @_ZStL8__ioinit, i32 0, i32 0), i8* @__dso_handle) #3
  ret void
}

declare dso_local void @_ZNSt8ios_base4InitC1Ev(%"class.std::ios_base::Init"*) unnamed_addr #1

; Function Attrs: nounwind
declare dso_local void @_ZNSt8ios_base4InitD1Ev(%"class.std::ios_base::Init"*) unnamed_addr #2

; Function Attrs: nounwind
declare dso_local i32 @__cxa_atexit(void (i8*)*, i8*, i8*) #3

; Function Attrs: noinline nounwind uwtable
define dso_local void @_Z8fractionv() #4 {
  %1 = alloca i32, align 4
  %2 = alloca i32, align 4
  store i32 0, i32* %1, align 4
  store i32 100, i32* %2, align 4
  br label %3

3:                                                ; preds = %59, %0
  %4 = load i32, i32* %2, align 4
  %5 = icmp sge i32 %4, 0
  br i1 %5, label %6, label %62

6:                                                ; preds = %3
  %7 = load i32, i32* %2, align 4
  %8 = sext i32 %7 to i64
  %9 = getelementptr inbounds [110 x i8], [110 x i8]* @number, i64 0, i64 %8
  %10 = load i8, i8* %9, align 1
  %11 = sext i8 %10 to i32
  %12 = icmp ne i32 %11, 48
  br i1 %12, label %13, label %27

13:                                               ; preds = %6
  %14 = load i32, i32* %2, align 4
  %15 = sext i32 %14 to i64
  %16 = getelementptr inbounds [110 x i8], [110 x i8]* @number, i64 0, i64 %15
  %17 = load i8, i8* %16, align 1
  %18 = sext i8 %17 to i32
  %19 = mul nsw i32 %18, 2
  %20 = sub nsw i32 %19, 48
  %21 = load i32, i32* %1, align 4
  %22 = add nsw i32 %20, %21
  %23 = trunc i32 %22 to i8
  %24 = load i32, i32* %2, align 4
  %25 = sext i32 %24 to i64
  %26 = getelementptr inbounds [110 x i8], [110 x i8]* @number, i64 0, i64 %25
  store i8 %23, i8* %26, align 1
  br label %39

27:                                               ; preds = %6
  %28 = load i32, i32* %2, align 4
  %29 = sext i32 %28 to i64
  %30 = getelementptr inbounds [110 x i8], [110 x i8]* @number, i64 0, i64 %29
  %31 = load i8, i8* %30, align 1
  %32 = sext i8 %31 to i32
  %33 = load i32, i32* %1, align 4
  %34 = add nsw i32 %32, %33
  %35 = trunc i32 %34 to i8
  %36 = load i32, i32* %2, align 4
  %37 = sext i32 %36 to i64
  %38 = getelementptr inbounds [110 x i8], [110 x i8]* @number, i64 0, i64 %37
  store i8 %35, i8* %38, align 1
  store i32 0, i32* %1, align 4
  br label %39

39:                                               ; preds = %27, %13
  %40 = load i32, i32* %2, align 4
  %41 = sext i32 %40 to i64
  %42 = getelementptr inbounds [110 x i8], [110 x i8]* @number, i64 0, i64 %41
  %43 = load i8, i8* %42, align 1
  %44 = sext i8 %43 to i32
  %45 = icmp sgt i32 %44, 57
  br i1 %45, label %46, label %57

46:                                               ; preds = %39
  %47 = load i32, i32* %2, align 4
  %48 = sext i32 %47 to i64
  %49 = getelementptr inbounds [110 x i8], [110 x i8]* @number, i64 0, i64 %48
  %50 = load i8, i8* %49, align 1
  %51 = sext i8 %50 to i32
  %52 = sub nsw i32 %51, 10
  %53 = trunc i32 %52 to i8
  %54 = load i32, i32* %2, align 4
  %55 = sext i32 %54 to i64
  %56 = getelementptr inbounds [110 x i8], [110 x i8]* @number, i64 0, i64 %55
  store i8 %53, i8* %56, align 1
  store i32 1, i32* %1, align 4
  br label %58

57:                                               ; preds = %39
  store i32 0, i32* %1, align 4
  br label %58

58:                                               ; preds = %57, %46
  br label %59

59:                                               ; preds = %58
  %60 = load i32, i32* %2, align 4
  %61 = add nsw i32 %60, -1
  store i32 %61, i32* %2, align 4
  br label %3

62:                                               ; preds = %3
  ret void
}

; Function Attrs: noinline norecurse uwtable
define dso_local i32 @main() #5 {
  %1 = alloca i32, align 4
  %2 = alloca i32, align 4
  %3 = alloca i32, align 4
  %4 = alloca i32, align 4
  %5 = alloca i32, align 4
  %6 = alloca i32, align 4
  %7 = alloca i32, align 4
  store i32 0, i32* %1, align 4
  %8 = call dereferenceable(280) %"class.std::basic_istream"* @_ZNSirsERi(%"class.std::basic_istream"* @_ZSt3cin, i32* dereferenceable(4) %2)
  store i32 0, i32* %3, align 4
  br label %9

9:                                                ; preds = %16, %0
  %10 = load i32, i32* %3, align 4
  %11 = icmp slt i32 %10, 100
  br i1 %11, label %12, label %19

12:                                               ; preds = %9
  %13 = load i32, i32* %3, align 4
  %14 = sext i32 %13 to i64
  %15 = getelementptr inbounds [110 x i8], [110 x i8]* @number, i64 0, i64 %14
  store i8 48, i8* %15, align 1
  br label %16

16:                                               ; preds = %12
  %17 = load i32, i32* %3, align 4
  %18 = add nsw i32 %17, 1
  store i32 %18, i32* %3, align 4
  br label %9

19:                                               ; preds = %9
  store i8 49, i8* getelementptr inbounds ([110 x i8], [110 x i8]* @number, i64 0, i64 100), align 4
  store i32 0, i32* %4, align 4
  br label %20

20:                                               ; preds = %25, %19
  %21 = load i32, i32* %4, align 4
  %22 = load i32, i32* %2, align 4
  %23 = icmp slt i32 %21, %22
  br i1 %23, label %24, label %28

24:                                               ; preds = %20
  call void @_Z8fractionv()
  br label %25

25:                                               ; preds = %24
  %26 = load i32, i32* %4, align 4
  %27 = add nsw i32 %26, 1
  store i32 %27, i32* %4, align 4
  br label %20

28:                                               ; preds = %20
  store i32 0, i32* %5, align 4
  store i32 0, i32* %6, align 4
  br label %29

29:                                               ; preds = %42, %28
  %30 = load i32, i32* %6, align 4
  %31 = icmp sle i32 %30, 100
  br i1 %31, label %32, label %45

32:                                               ; preds = %29
  %33 = load i32, i32* %6, align 4
  %34 = sext i32 %33 to i64
  %35 = getelementptr inbounds [110 x i8], [110 x i8]* @number, i64 0, i64 %34
  %36 = load i8, i8* %35, align 1
  %37 = sext i8 %36 to i32
  %38 = icmp ne i32 %37, 48
  br i1 %38, label %39, label %41

39:                                               ; preds = %32
  %40 = load i32, i32* %6, align 4
  store i32 %40, i32* %5, align 4
  br label %45

41:                                               ; preds = %32
  br label %42

42:                                               ; preds = %41
  %43 = load i32, i32* %6, align 4
  %44 = add nsw i32 %43, 1
  store i32 %44, i32* %6, align 4
  br label %29

45:                                               ; preds = %39, %29
  %46 = load i32, i32* %5, align 4
  store i32 %46, i32* %7, align 4
  br label %47

47:                                               ; preds = %56, %45
  %48 = load i32, i32* %7, align 4
  %49 = icmp sle i32 %48, 100
  br i1 %49, label %50, label %59

50:                                               ; preds = %47
  %51 = load i32, i32* %7, align 4
  %52 = sext i32 %51 to i64
  %53 = getelementptr inbounds [110 x i8], [110 x i8]* @number, i64 0, i64 %52
  %54 = load i8, i8* %53, align 1
  %55 = call dereferenceable(272) %"class.std::basic_ostream"* @_ZStlsISt11char_traitsIcEERSt13basic_ostreamIcT_ES5_c(%"class.std::basic_ostream"* dereferenceable(272) @_ZSt4cout, i8 signext %54)
  br label %56

56:                                               ; preds = %50
  %57 = load i32, i32* %7, align 4
  %58 = add nsw i32 %57, 1
  store i32 %58, i32* %7, align 4
  br label %47

59:                                               ; preds = %47
  ret i32 0
}

declare dso_local dereferenceable(280) %"class.std::basic_istream"* @_ZNSirsERi(%"class.std::basic_istream"*, i32* dereferenceable(4)) #1

declare dso_local dereferenceable(272) %"class.std::basic_ostream"* @_ZStlsISt11char_traitsIcEERSt13basic_ostreamIcT_ES5_c(%"class.std::basic_ostream"* dereferenceable(272), i8 signext) #1

; Function Attrs: noinline uwtable
define internal void @_GLOBAL__sub_I_1127.cpp() #0 section ".text.startup" {
  call void @__cxx_global_var_init()
  ret void
}


!llvm.module.flags = !{!0}
!llvm.ident = !{!1}

!0 = !{i32 1, !"wchar_size", i32 4}
!1 = !{!"clang version 10.0.0-4ubuntu1 "}
